; Function Attrs: nounwind uwtable
define internal fastcc void @zend_compile_unary_op(ptr noundef %0, ptr nocapture noundef readonly %1) unnamed_addr #0 {
  %3 = alloca %struct._znode, align 8
  %4 = getelementptr inbounds i8, ptr %1, i64 2
  %5 = load i16, ptr %4, align 2
  %6 = load ptr, ptr getelementptr inbounds (%struct._zend_executor_globals, ptr @executor_globals, i64 0, i32 32), align 8
  %7 = tail call ptr @llvm.frameaddress.p0(i32 0)
  %.not.i.i = icmp ugt ptr %7, %6
  br i1 %.not.i.i, label %zend_compile_expr.exit, label %8

8:                                                ; preds = %2
  %9 = load ptr, ptr getelementptr inbounds (%struct._zend_executor_globals, ptr @executor_globals, i64 0, i32 31), align 8
  %10 = ptrtoint ptr %9 to i64
  %11 = ptrtoint ptr %6 to i64
  %12 = sub i64 %10, %11
  tail call void (i32, ptr, ...) @zend_error_noreturn(i32 noundef 64, ptr noundef nonnull @.str.282, i64 noundef %12) #31
  unreachable

zend_compile_expr.exit:                           ; preds = %2
  %13 = getelementptr inbounds i8, ptr %1, i64 8
  %14 = load ptr, ptr %13, align 8
  %15 = tail call i32 @zend_stack_count(ptr noundef nonnull getelementptr inbounds (%struct._zend_compiler_globals, ptr @compiler_globals, i64 0, i32 45)) #30
  call fastcc void @zend_compile_expr_inner(ptr noundef nonnull %3, ptr noundef %14)
  call fastcc void @zend_short_circuiting_commit(i32 noundef %15, ptr noundef nonnull %3, ptr noundef %14)
  %16 = load i8, ptr %3, align 8
  %17 = icmp eq i8 %16, 1
  br i1 %17, label %18, label %zend_try_ct_eval_unary_op.exit.thread

18:                                               ; preds = %zend_compile_expr.exit
  %19 = zext i16 %5 to i32
  %20 = getelementptr inbounds i8, ptr %0, i64 8
  %21 = getelementptr inbounds i8, ptr %3, i64 8
  %22 = icmp eq i16 %5, 13
  br i1 %22, label %23, label %30

23:                                               ; preds = %18
  %24 = getelementptr inbounds i8, ptr %3, i64 16
  %25 = load i8, ptr %24, align 8
  %26 = icmp eq i8 %25, 6
  br i1 %26, label %30, label %27

27:                                               ; preds = %23
  %28 = icmp ult i8 %25, 4
  br i1 %28, label %zend_try_ct_eval_unary_op.exit.thread, label %zend_unary_op_produces_error.exit.i

zend_unary_op_produces_error.exit.i:              ; preds = %27
  %29 = call zeroext i1 @zend_is_op_long_compatible(ptr noundef nonnull %21)
  br i1 %29, label %30, label %zend_try_ct_eval_unary_op.exit.thread

30:                                               ; preds = %zend_unary_op_produces_error.exit.i, %23, %18
  %31 = call ptr @get_unary_op(i32 noundef %19) #30
  %32 = call i32 %31(ptr noundef nonnull %20, ptr noundef nonnull %21) #30
  store i8 1, ptr %0, align 8
  call void @zval_ptr_dtor(ptr noundef nonnull %21) #30
  br label %35

zend_try_ct_eval_unary_op.exit.thread:            ; preds = %27, %zend_unary_op_produces_error.exit.i, %zend_compile_expr.exit
  %33 = trunc i16 %5 to i8
  %34 = call fastcc ptr @zend_emit_op_tmp(ptr noundef %0, i8 noundef zeroext %33, ptr noundef nonnull %3, ptr noundef null)
  br label %35

35:                                               ; preds = %zend_try_ct_eval_unary_op.exit.thread, %30
  ret void
}